(dp0
Vengine
p1
S'pdflatex'
p2
sVpackages
p3
c__builtin__
set
p4
((lp5
Vbreakurl
p6
aVhyperref
p7
aVcolor
p8
aVbabel
p9
aVinputenc
p10
aVamsfonts
p11
aVgraphicx
p12
atp13
Rp14
sVfiles_with_guttermarks
p15
g4
((lp16
V/Users/roberto/Documents/GitHub/Tesi/tesiLaurea.tex
p17
aS'tesiLaurea.tex'
p18
aV/Users/roberto/Documents/GitHub/Tesi/./tesiLaurea.tex
p19
atp20
Rp21
sVsynctex
p22
I01
s.